target datalayout = "e-m:e-p270:32:32-p271:32:32-p272:64:64-i64:64-i128:128-f80:128-n8:16:32:64-S128"
target triple = "x86_64-pc-linux-gnu"

%struct._zval_struct = type { %union._zend_value, %union.anon, %union.anon.3 }
%union._zend_value = type { i64 }
%union.anon = type { i32 }
%union.anon.3 = type { i32 }
%struct._zend_refcounted_h = type { i32, %union.anon.4 }
%union.anon.4 = type { i32 }
%struct.anon.1 = type { i8, i8, %union.anon.2 }
%union.anon.2 = type { i16 }
%struct._zend_refcounted = type { %struct._zend_refcounted_h }

; Function Attrs: nounwind uwtable
define internal void @join_phi_values(ptr noundef %0, ptr noundef %1, i1 noundef zeroext %2) #0 {
  %4 = alloca ptr, align 8
  %5 = alloca ptr, align 8
  %6 = alloca ptr, align 8
  %7 = alloca ptr, align 8
  %8 = alloca ptr, align 8
  %9 = alloca ptr, align 8
  %10 = alloca ptr, align 8
  %11 = alloca ptr, align 8
  %12 = alloca ptr, align 8
  %13 = alloca ptr, align 8
  %14 = alloca ptr, align 8
  %15 = alloca ptr, align 8
  %16 = alloca ptr, align 8
  %17 = alloca ptr, align 8
  %18 = alloca ptr, align 8
  %19 = alloca ptr, align 8
  %20 = alloca ptr, align 8
  %21 = alloca ptr, align 8
  %22 = alloca ptr, align 8
  %23 = alloca ptr, align 8
  %24 = alloca ptr, align 8
  %25 = alloca ptr, align 8
  %26 = alloca ptr, align 8
  %27 = alloca ptr, align 8
  %28 = alloca ptr, align 8
  %29 = alloca ptr, align 8
  %30 = alloca i8, align 1
  %31 = alloca ptr, align 8
  %32 = alloca ptr, align 8
  %33 = alloca ptr, align 8
  %34 = alloca i32, align 4
  store ptr %0, ptr %28, align 8
  store ptr %1, ptr %29, align 8
  %35 = zext i1 %2 to i8
  store i8 %35, ptr %30, align 1
  %36 = load ptr, ptr %28, align 8
  store ptr %36, ptr %20, align 8
  %37 = load ptr, ptr %20, align 8
  %38 = getelementptr inbounds %struct._zval_struct, ptr %37, i32 0, i32 1
  %39 = load i8, ptr %38, align 8
  %40 = zext i8 %39 to i32
  %41 = icmp eq i32 %40, 254
  br i1 %41, label %49, label %42

42:                                               ; preds = %3
  %43 = load ptr, ptr %29, align 8
  store ptr %43, ptr %21, align 8
  %44 = load ptr, ptr %21, align 8
  %45 = getelementptr inbounds %struct._zval_struct, ptr %44, i32 0, i32 1
  %46 = load i8, ptr %45, align 8
  %47 = zext i8 %46 to i32
  %48 = icmp eq i32 %47, 255
  br i1 %48, label %49, label %50

49:                                               ; preds = %42, %3
  br label %300

50:                                               ; preds = %42
  %51 = load ptr, ptr %28, align 8
  store ptr %51, ptr %22, align 8
  %52 = load ptr, ptr %22, align 8
  %53 = getelementptr inbounds %struct._zval_struct, ptr %52, i32 0, i32 1
  %54 = load i8, ptr %53, align 8
  %55 = zext i8 %54 to i32
  %56 = icmp eq i32 %55, 255
  br i1 %56, label %57, label %114

57:                                               ; preds = %50
  %58 = load ptr, ptr %28, align 8
  store ptr %58, ptr %15, align 8
  %59 = load ptr, ptr %15, align 8
  %60 = getelementptr inbounds %struct._zval_struct, ptr %59, i32 0, i32 1
  %61 = getelementptr inbounds %struct.anon.1, ptr %60, i32 0, i32 1
  %62 = load i8, ptr %61, align 1
  %63 = zext i8 %62 to i32
  %64 = icmp ne i32 %63, 0
  br i1 %64, label %65, label %85

65:                                               ; preds = %57
  %66 = load ptr, ptr %15, align 8
  store ptr %66, ptr %13, align 8
  %67 = load ptr, ptr %13, align 8
  %68 = getelementptr inbounds %struct._zval_struct, ptr %67, i32 0, i32 1
  %69 = getelementptr inbounds %struct.anon.1, ptr %68, i32 0, i32 1
  %70 = load i8, ptr %69, align 1
  %71 = zext i8 %70 to i32
  %72 = icmp ne i32 %71, 0
  call void @llvm.assume(i1 %72)
  %73 = load ptr, ptr %13, align 8
  %74 = load ptr, ptr %73, align 8
  store ptr %74, ptr %4, align 8
  %75 = load ptr, ptr %4, align 8
  %76 = load i32, ptr %75, align 4
  %77 = icmp ugt i32 %76, 0
  call void @llvm.assume(i1 %77)
  %78 = load ptr, ptr %4, align 8
  %79 = load i32, ptr %78, align 4
  %80 = add i32 %79, -1
  store i32 %80, ptr %78, align 4
  %81 = icmp ne i32 %80, 0
  br i1 %81, label %85, label %82

82:                                               ; preds = %65
  %83 = load ptr, ptr %15, align 8
  %84 = load ptr, ptr %83, align 8
  call void @rc_dtor_func(ptr noundef %84) #10
  br label %85

85:                                               ; preds = %82, %65, %57
  br label %86

86:                                               ; preds = %85
  %87 = load ptr, ptr %28, align 8
  store ptr %87, ptr %31, align 8
  %88 = load ptr, ptr %29, align 8
  store ptr %88, ptr %32, align 8
  %89 = load ptr, ptr %32, align 8
  %90 = getelementptr inbounds %struct._zval_struct, ptr %89, i32 0, i32 0
  %91 = load ptr, ptr %90, align 8
  store ptr %91, ptr %33, align 8
  %92 = load ptr, ptr %32, align 8
  %93 = getelementptr inbounds %struct._zval_struct, ptr %92, i32 0, i32 1
  %94 = load i32, ptr %93, align 8
  store i32 %94, ptr %34, align 4
  br label %95

95:                                               ; preds = %86
  %96 = load ptr, ptr %33, align 8
  %97 = load ptr, ptr %31, align 8
  %98 = getelementptr inbounds %struct._zval_struct, ptr %97, i32 0, i32 0
  store ptr %96, ptr %98, align 8
  %99 = load i32, ptr %34, align 4
  %100 = load ptr, ptr %31, align 8
  %101 = getelementptr inbounds %struct._zval_struct, ptr %100, i32 0, i32 1
  store i32 %99, ptr %101, align 8
  br label %102

102:                                              ; preds = %95
  %103 = load i32, ptr %34, align 4
  %104 = and i32 %103, 65280
  %105 = icmp ne i32 %104, 0
  br i1 %105, label %106, label %112

106:                                              ; preds = %102
  %107 = load ptr, ptr %33, align 8
  %108 = getelementptr inbounds %struct._zend_refcounted, ptr %107, i32 0, i32 0
  store ptr %108, ptr %14, align 8
  %109 = load ptr, ptr %14, align 8
  %110 = load i32, ptr %109, align 4
  %111 = add i32 %110, 1
  store i32 %111, ptr %109, align 4
  br label %112

112:                                              ; preds = %106, %102
  br label %113

113:                                              ; preds = %112
  br label %300

114:                                              ; preds = %50
  %115 = load ptr, ptr %29, align 8
  store ptr %115, ptr %23, align 8
  %116 = load ptr, ptr %23, align 8
  %117 = getelementptr inbounds %struct._zval_struct, ptr %116, i32 0, i32 1
  %118 = load i8, ptr %117, align 8
  %119 = zext i8 %118 to i32
  %120 = icmp eq i32 %119, 254
  br i1 %120, label %121, label %152

121:                                              ; preds = %114
  %122 = load ptr, ptr %28, align 8
  store ptr %122, ptr %16, align 8
  %123 = load ptr, ptr %16, align 8
  %124 = getelementptr inbounds %struct._zval_struct, ptr %123, i32 0, i32 1
  %125 = getelementptr inbounds %struct.anon.1, ptr %124, i32 0, i32 1
  %126 = load i8, ptr %125, align 1
  %127 = zext i8 %126 to i32
  %128 = icmp ne i32 %127, 0
  br i1 %128, label %129, label %149

129:                                              ; preds = %121
  %130 = load ptr, ptr %16, align 8
  store ptr %130, ptr %12, align 8
  %131 = load ptr, ptr %12, align 8
  %132 = getelementptr inbounds %struct._zval_struct, ptr %131, i32 0, i32 1
  %133 = getelementptr inbounds %struct.anon.1, ptr %132, i32 0, i32 1
  %134 = load i8, ptr %133, align 1
  %135 = zext i8 %134 to i32
  %136 = icmp ne i32 %135, 0
  call void @llvm.assume(i1 %136)
  %137 = load ptr, ptr %12, align 8
  %138 = load ptr, ptr %137, align 8
  store ptr %138, ptr %5, align 8
  %139 = load ptr, ptr %5, align 8
  %140 = load i32, ptr %139, align 4
  %141 = icmp ugt i32 %140, 0
  call void @llvm.assume(i1 %141)
  %142 = load ptr, ptr %5, align 8
  %143 = load i32, ptr %142, align 4
  %144 = add i32 %143, -1
  store i32 %144, ptr %142, align 4
  %145 = icmp ne i32 %144, 0
  br i1 %145, label %149, label %146

146:                                              ; preds = %129
  %147 = load ptr, ptr %16, align 8
  %148 = load ptr, ptr %147, align 8
  call void @rc_dtor_func(ptr noundef %148) #10
  br label %149

149:                                              ; preds = %146, %129, %121
  %150 = load ptr, ptr %28, align 8
  %151 = getelementptr inbounds %struct._zval_struct, ptr %150, i32 0, i32 1
  store i32 254, ptr %151, align 8
  br label %300

152:                                              ; preds = %114
  %153 = load ptr, ptr %28, align 8
  store ptr %153, ptr %24, align 8
  %154 = load ptr, ptr %24, align 8
  %155 = getelementptr inbounds %struct._zval_struct, ptr %154, i32 0, i32 1
  %156 = load i8, ptr %155, align 8
  %157 = zext i8 %156 to i32
  %158 = icmp eq i32 %157, 253
  br i1 %158, label %166, label %159

159:                                              ; preds = %152
  %160 = load ptr, ptr %29, align 8
  store ptr %160, ptr %25, align 8
  %161 = load ptr, ptr %25, align 8
  %162 = getelementptr inbounds %struct._zval_struct, ptr %161, i32 0, i32 1
  %163 = load i8, ptr %162, align 8
  %164 = zext i8 %163 to i32
  %165 = icmp eq i32 %164, 253
  br i1 %165, label %166, label %203

166:                                              ; preds = %159, %152
  %167 = load ptr, ptr %28, align 8
  %168 = load ptr, ptr %29, align 8
  %169 = call i32 @join_partial_arrays(ptr noundef %167, ptr noundef %168)
  %170 = icmp eq i32 %169, -1
  br i1 %170, label %171, label %202

171:                                              ; preds = %166
  %172 = load ptr, ptr %28, align 8
  store ptr %172, ptr %17, align 8
  %173 = load ptr, ptr %17, align 8
  %174 = getelementptr inbounds %struct._zval_struct, ptr %173, i32 0, i32 1
  %175 = getelementptr inbounds %struct.anon.1, ptr %174, i32 0, i32 1
  %176 = load i8, ptr %175, align 1
  %177 = zext i8 %176 to i32
  %178 = icmp ne i32 %177, 0
  br i1 %178, label %179, label %199

179:                                              ; preds = %171
  %180 = load ptr, ptr %17, align 8
  store ptr %180, ptr %11, align 8
  %181 = load ptr, ptr %11, align 8
  %182 = getelementptr inbounds %struct._zval_struct, ptr %181, i32 0, i32 1
  %183 = getelementptr inbounds %struct.anon.1, ptr %182, i32 0, i32 1
  %184 = load i8, ptr %183, align 1
  %185 = zext i8 %184 to i32
  %186 = icmp ne i32 %185, 0
  call void @llvm.assume(i1 %186)
  %187 = load ptr, ptr %11, align 8
  %188 = load ptr, ptr %187, align 8
  store ptr %188, ptr %6, align 8
  %189 = load ptr, ptr %6, align 8
  %190 = load i32, ptr %189, align 4
  %191 = icmp ugt i32 %190, 0
  call void @llvm.assume(i1 %191)
  %192 = load ptr, ptr %6, align 8
  %193 = load i32, ptr %192, align 4
  %194 = add i32 %193, -1
  store i32 %194, ptr %192, align 4
  %195 = icmp ne i32 %194, 0
  br i1 %195, label %199, label %196

196:                                              ; preds = %179
  %197 = load ptr, ptr %17, align 8
  %198 = load ptr, ptr %197, align 8
  call void @rc_dtor_func(ptr noundef %198) #10
  br label %199

199:                                              ; preds = %196, %179, %171
  %200 = load ptr, ptr %28, align 8
  %201 = getelementptr inbounds %struct._zval_struct, ptr %200, i32 0, i32 1
  store i32 254, ptr %201, align 8
  br label %202

202:                                              ; preds = %199, %166
  br label %300

203:                                              ; preds = %159
  %204 = load ptr, ptr %28, align 8
  store ptr %204, ptr %26, align 8
  %205 = load ptr, ptr %26, align 8
  %206 = getelementptr inbounds %struct._zval_struct, ptr %205, i32 0, i32 1
  %207 = load i8, ptr %206, align 8
  %208 = zext i8 %207 to i32
  %209 = icmp eq i32 %208, 252
  br i1 %209, label %217, label %210

210:                                              ; preds = %203
  %211 = load ptr, ptr %29, align 8
  store ptr %211, ptr %27, align 8
  %212 = load ptr, ptr %27, align 8
  %213 = getelementptr inbounds %struct._zval_struct, ptr %212, i32 0, i32 1
  %214 = load i8, ptr %213, align 8
  %215 = zext i8 %214 to i32
  %216 = icmp eq i32 %215, 252
  br i1 %216, label %217, label %257

217:                                              ; preds = %210, %203
  %218 = load i8, ptr %30, align 1
  %219 = trunc i8 %218 to i1
  br i1 %219, label %225, label %220

220:                                              ; preds = %217
  %221 = load ptr, ptr %28, align 8
  %222 = load ptr, ptr %29, align 8
  %223 = call i32 @join_partial_objects(ptr noundef %221, ptr noundef %222)
  %224 = icmp eq i32 %223, -1
  br i1 %224, label %225, label %256

225:                                              ; preds = %220, %217
  %226 = load ptr, ptr %28, align 8
  store ptr %226, ptr %18, align 8
  %227 = load ptr, ptr %18, align 8
  %228 = getelementptr inbounds %struct._zval_struct, ptr %227, i32 0, i32 1
  %229 = getelementptr inbounds %struct.anon.1, ptr %228, i32 0, i32 1
  %230 = load i8, ptr %229, align 1
  %231 = zext i8 %230 to i32
  %232 = icmp ne i32 %231, 0
  br i1 %232, label %233, label %253

233:                                              ; preds = %225
  %234 = load ptr, ptr %18, align 8
  store ptr %234, ptr %10, align 8
  %235 = load ptr, ptr %10, align 8
  %236 = getelementptr inbounds %struct._zval_struct, ptr %235, i32 0, i32 1
  %237 = getelementptr inbounds %struct.anon.1, ptr %236, i32 0, i32 1
  %238 = load i8, ptr %237, align 1
  %239 = zext i8 %238 to i32
  %240 = icmp ne i32 %239, 0
  call void @llvm.assume(i1 %240)
  %241 = load ptr, ptr %10, align 8
  %242 = load ptr, ptr %241, align 8
  store ptr %242, ptr %7, align 8
  %243 = load ptr, ptr %7, align 8
  %244 = load i32, ptr %243, align 4
  %245 = icmp ugt i32 %244, 0
  call void @llvm.assume(i1 %245)
  %246 = load ptr, ptr %7, align 8
  %247 = load i32, ptr %246, align 4
  %248 = add i32 %247, -1
  store i32 %248, ptr %246, align 4
  %249 = icmp ne i32 %248, 0
  br i1 %249, label %253, label %250

250:                                              ; preds = %233
  %251 = load ptr, ptr %18, align 8
  %252 = load ptr, ptr %251, align 8
  call void @rc_dtor_func(ptr noundef %252) #10
  br label %253

253:                                              ; preds = %250, %233, %225
  %254 = load ptr, ptr %28, align 8
  %255 = getelementptr inbounds %struct._zval_struct, ptr %254, i32 0, i32 1
  store i32 254, ptr %255, align 8
  br label %256

256:                                              ; preds = %253, %220
  br label %299

257:                                              ; preds = %210
  %258 = load ptr, ptr %28, align 8
  %259 = load ptr, ptr %29, align 8
  %260 = call zeroext i1 @zend_is_identical(ptr noundef %258, ptr noundef %259)
  br i1 %260, label %298, label %261

261:                                              ; preds = %257
  %262 = load ptr, ptr %28, align 8
  %263 = load ptr, ptr %29, align 8
  %264 = call i32 @join_partial_arrays(ptr noundef %262, ptr noundef %263)
  %265 = icmp eq i32 %264, -1
  br i1 %265, label %266, label %297

266:                                              ; preds = %261
  %267 = load ptr, ptr %28, align 8
  store ptr %267, ptr %19, align 8
  %268 = load ptr, ptr %19, align 8
  %269 = getelementptr inbounds %struct._zval_struct, ptr %268, i32 0, i32 1
  %270 = getelementptr inbounds %struct.anon.1, ptr %269, i32 0, i32 1
  %271 = load i8, ptr %270, align 1
  %272 = zext i8 %271 to i32
  %273 = icmp ne i32 %272, 0
  br i1 %273, label %274, label %294

274:                                              ; preds = %266
  %275 = load ptr, ptr %19, align 8
  store ptr %275, ptr %9, align 8
  %276 = load ptr, ptr %9, align 8
  %277 = getelementptr inbounds %struct._zval_struct, ptr %276, i32 0, i32 1
  %278 = getelementptr inbounds %struct.anon.1, ptr %277, i32 0, i32 1
  %279 = load i8, ptr %278, align 1
  %280 = zext i8 %279 to i32
  %281 = icmp ne i32 %280, 0
  call void @llvm.assume(i1 %281)
  %282 = load ptr, ptr %9, align 8
  %283 = load ptr, ptr %282, align 8
  store ptr %283, ptr %8, align 8
  %284 = load ptr, ptr %8, align 8
  %285 = load i32, ptr %284, align 4
  %286 = icmp ugt i32 %285, 0
  call void @llvm.assume(i1 %286)
  %287 = load ptr, ptr %8, align 8
  %288 = load i32, ptr %287, align 4
  %289 = add i32 %288, -1
  store i32 %289, ptr %287, align 4
  %290 = icmp ne i32 %289, 0
  br i1 %290, label %294, label %291

291:                                              ; preds = %274
  %292 = load ptr, ptr %19, align 8
  %293 = load ptr, ptr %292, align 8
  call void @rc_dtor_func(ptr noundef %293) #10
  br label %294

294:                                              ; preds = %291, %274, %266
  %295 = load ptr, ptr %28, align 8
  %296 = getelementptr inbounds %struct._zval_struct, ptr %295, i32 0, i32 1
  store i32 254, ptr %296, align 8
  br label %297

297:                                              ; preds = %294, %261
  br label %298

298:                                              ; preds = %297, %257
  br label %299

299:                                              ; preds = %298, %256
  br label %300

300:                                              ; preds = %299, %202, %149, %113, %49
  ret void
}