; Function Attrs: nounwind uwtable
define internal fastcc void @join_phi_values(ptr noundef %0, ptr noundef %1, i1 noundef zeroext %2) unnamed_addr #0 {
  %4 = getelementptr inbounds i8, ptr %0, i64 8
  %5 = load i8, ptr %4, align 8
  %6 = icmp eq i8 %5, -2
  br i1 %6, label %106, label %7

7:                                                ; preds = %3
  %8 = getelementptr inbounds i8, ptr %1, i64 8
  %9 = load i8, ptr %8, align 8
  %10 = icmp eq i8 %9, -1
  br i1 %10, label %106, label %11

11:                                               ; preds = %7
  %12 = icmp eq i8 %5, -1
  br i1 %12, label %13, label %30

13:                                               ; preds = %11
  %14 = getelementptr inbounds i8, ptr %0, i64 9
  %15 = load i8, ptr %14, align 1
  %.not87 = icmp eq i8 %15, 0
  br i1 %.not87, label %23, label %16

16:                                               ; preds = %13
  %17 = load ptr, ptr %0, align 8
  %18 = load i32, ptr %17, align 4
  %19 = icmp ne i32 %18, 0
  tail call void @llvm.assume(i1 %19)
  %20 = add i32 %18, -1
  store i32 %20, ptr %17, align 4
  %.not88 = icmp eq i32 %20, 0
  br i1 %.not88, label %21, label %23

21:                                               ; preds = %16
  %22 = load ptr, ptr %0, align 8
  tail call void @rc_dtor_func(ptr noundef %22) #13
  br label %23

23:                                               ; preds = %13, %16, %21
  %24 = load ptr, ptr %1, align 8
  %25 = load i32, ptr %8, align 8
  store ptr %24, ptr %0, align 8
  store i32 %25, ptr %4, align 8
  %26 = and i32 %25, 65280
  %.not89 = icmp eq i32 %26, 0
  br i1 %.not89, label %106, label %27

27:                                               ; preds = %23
  %28 = load i32, ptr %24, align 4
  %29 = add i32 %28, 1
  store i32 %29, ptr %24, align 4
  br label %106

30:                                               ; preds = %11
  %31 = icmp eq i8 %9, -2
  br i1 %31, label %32, label %43

32:                                               ; preds = %30
  %33 = getelementptr inbounds i8, ptr %0, i64 9
  %34 = load i8, ptr %33, align 1
  %.not85 = icmp eq i8 %34, 0
  br i1 %.not85, label %42, label %35

35:                                               ; preds = %32
  %36 = load ptr, ptr %0, align 8
  %37 = load i32, ptr %36, align 4
  %38 = icmp ne i32 %37, 0
  tail call void @llvm.assume(i1 %38)
  %39 = add i32 %37, -1
  store i32 %39, ptr %36, align 4
  %.not86 = icmp eq i32 %39, 0
  br i1 %.not86, label %40, label %42

40:                                               ; preds = %35
  %41 = load ptr, ptr %0, align 8
  tail call void @rc_dtor_func(ptr noundef %41) #13
  br label %42

42:                                               ; preds = %40, %35, %32
  store i32 254, ptr %4, align 8
  br label %106

43:                                               ; preds = %30
  %44 = icmp eq i8 %5, -3
  %45 = icmp eq i8 %9, -3
  %or.cond = or i1 %44, %45
  br i1 %or.cond, label %46, label %72

46:                                               ; preds = %43
  switch i8 %5, label %61 [
    i8 7, label %47
    i8 -3, label %47
  ]

47:                                               ; preds = %46, %46
  switch i8 %9, label %61 [
    i8 7, label %48
    i8 -3, label %48
  ]

48:                                               ; preds = %47, %47
  %49 = tail call ptr @_zend_new_array_0() #13
  %50 = load ptr, ptr %0, align 8
  %51 = load ptr, ptr %1, align 8
  tail call fastcc void @join_hash_tables(ptr noundef %49, ptr noundef %50, ptr noundef %51)
  %52 = getelementptr inbounds i8, ptr %0, i64 9
  %53 = load i8, ptr %52, align 1
  %.not28.i = icmp eq i8 %53, 0
  br i1 %.not28.i, label %join_partial_arrays.exit, label %54

54:                                               ; preds = %48
  %55 = load ptr, ptr %0, align 8
  %56 = load i32, ptr %55, align 4
  %57 = icmp ne i32 %56, 0
  tail call void @llvm.assume(i1 %57)
  %58 = add i32 %56, -1
  store i32 %58, ptr %55, align 4
  %.not29.i = icmp eq i32 %58, 0
  br i1 %.not29.i, label %59, label %join_partial_arrays.exit

59:                                               ; preds = %54
  %60 = load ptr, ptr %0, align 8
  tail call void @rc_dtor_func(ptr noundef %60) #13
  br label %join_partial_arrays.exit

join_partial_arrays.exit:                         ; preds = %48, %54, %59
  store ptr %49, ptr %0, align 8
  store i32 509, ptr %4, align 8
  br label %106

61:                                               ; preds = %47, %46
  %62 = getelementptr inbounds i8, ptr %0, i64 9
  %63 = load i8, ptr %62, align 1
  %.not83 = icmp eq i8 %63, 0
  br i1 %.not83, label %71, label %64

64:                                               ; preds = %61
  %65 = load ptr, ptr %0, align 8
  %66 = load i32, ptr %65, align 4
  %67 = icmp ne i32 %66, 0
  tail call void @llvm.assume(i1 %67)
  %68 = add i32 %66, -1
  store i32 %68, ptr %65, align 4
  %.not84 = icmp eq i32 %68, 0
  br i1 %.not84, label %69, label %71

69:                                               ; preds = %64
  %70 = load ptr, ptr %0, align 8
  tail call void @rc_dtor_func(ptr noundef %70) #13
  br label %71

71:                                               ; preds = %69, %64, %61
  store i32 254, ptr %4, align 8
  br label %106

72:                                               ; preds = %43
  %73 = icmp eq i8 %5, -4
  %74 = icmp eq i8 %9, -4
  %or.cond90 = or i1 %73, %74
  br i1 %or.cond90, label %75, label %90

75:                                               ; preds = %72
  br i1 %2, label %79, label %76

76:                                               ; preds = %75
  %77 = tail call fastcc i32 @join_partial_objects(ptr noundef nonnull %0, ptr noundef nonnull %1), !range !5
  %78 = icmp eq i32 %77, -1
  br i1 %78, label %79, label %106

79:                                               ; preds = %76, %75
  %80 = getelementptr inbounds i8, ptr %0, i64 9
  %81 = load i8, ptr %80, align 1
  %.not81 = icmp eq i8 %81, 0
  br i1 %.not81, label %89, label %82

82:                                               ; preds = %79
  %83 = load ptr, ptr %0, align 8
  %84 = load i32, ptr %83, align 4
  %85 = icmp ne i32 %84, 0
  tail call void @llvm.assume(i1 %85)
  %86 = add i32 %84, -1
  store i32 %86, ptr %83, align 4
  %.not82 = icmp eq i32 %86, 0
  br i1 %.not82, label %87, label %89

87:                                               ; preds = %82
  %88 = load ptr, ptr %0, align 8
  tail call void @rc_dtor_func(ptr noundef %88) #13
  br label %89

89:                                               ; preds = %87, %82, %79
  store i32 254, ptr %4, align 8
  br label %106

90:                                               ; preds = %72
  %91 = tail call zeroext i1 @zend_is_identical(ptr noundef nonnull %0, ptr noundef nonnull %1) #13
  br i1 %91, label %106, label %92

92:                                               ; preds = %90
  %93 = tail call fastcc i32 @join_partial_arrays(ptr noundef nonnull %0, ptr noundef nonnull %1), !range !5
  %94 = icmp eq i32 %93, -1
  br i1 %94, label %95, label %106

95:                                               ; preds = %92
  %96 = getelementptr inbounds i8, ptr %0, i64 9
  %97 = load i8, ptr %96, align 1
  %.not = icmp eq i8 %97, 0
  br i1 %.not, label %105, label %98

98:                                               ; preds = %95
  %99 = load ptr, ptr %0, align 8
  %100 = load i32, ptr %99, align 4
  %101 = icmp ne i32 %100, 0
  tail call void @llvm.assume(i1 %101)
  %102 = add i32 %100, -1
  store i32 %102, ptr %99, align 4
  %.not80 = icmp eq i32 %102, 0
  br i1 %.not80, label %103, label %105

103:                                              ; preds = %98
  %104 = load ptr, ptr %0, align 8
  tail call void @rc_dtor_func(ptr noundef %104) #13
  br label %105

105:                                              ; preds = %103, %98, %95
  store i32 254, ptr %4, align 8
  br label %106

106:                                              ; preds = %join_partial_arrays.exit, %89, %76, %92, %105, %90, %71, %27, %23, %3, %7, %42
  ret void
}